target datalayout = "e-m:e-p270:32:32-p271:32:32-p272:64:64-i64:64-i128:128-f80:128-n8:16:32:64-S128"
target triple = "x86_64-unknown-linux-gnu"

%"class.std::__shared_count" = type { ptr }
%"class.std::shared_ptr.87" = type { %"class.std::__shared_ptr.88" }
%"class.std::__shared_ptr.88" = type { ptr, %"class.std::__shared_count" }
%"class.arrow::Status" = type { ptr }

@__dso_handle = external hidden global i8
@_ZZN5arrow2io8internal15GetIOThreadPoolEvE4pool = internal global %"class.std::shared_ptr.87" zeroinitializer, align 8
@_ZGVZN5arrow2io8internal15GetIOThreadPoolEvE4pool = internal global i64 0, align 8

; Function Attrs: mustprogress nounwind uwtable
define linkonce_odr noundef ptr @_ZNKSt12__shared_ptrIN5arrow8internal10ThreadPoolELN9__gnu_cxx12_Lock_policyE2EE3getEv(ptr noundef nonnull align 8 dereferenceable(16) %this) #1 comdat align 2 {
entry:
  %this.addr = alloca ptr, align 8
  store ptr %this, ptr %this.addr, align 8
  %this1 = load ptr, ptr %this.addr, align 8
  %_M_ptr = getelementptr inbounds %"class.std::__shared_ptr.88", ptr %this1, i32 0, i32 0
  %0 = load ptr, ptr %_M_ptr, align 8
  ret ptr %0
}

; Function Attrs: mustprogress uwtable
define noundef ptr @_ZN5arrow2io8internal15GetIOThreadPoolEv() #0 personality ptr @__gxx_personality_v0 {
entry:
  %exn.slot = alloca ptr, align 8
  %ehselector.slot = alloca i32, align 4
  %0 = load atomic i8, ptr @_ZGVZN5arrow2io8internal15GetIOThreadPoolEvE4pool acquire, align 8
  %guard.uninitialized = icmp eq i8 %0, 0
  br i1 %guard.uninitialized, label %init.check, label %init.end, !prof !4

init.check:                                       ; preds = %entry
  %1 = call i32 @__cxa_guard_acquire(ptr @_ZGVZN5arrow2io8internal15GetIOThreadPoolEvE4pool) #2
  %tobool = icmp ne i32 %1, 0
  br i1 %tobool, label %init, label %init.end

init:                                             ; preds = %init.check
  invoke void @_ZN5arrow2io8internal12_GLOBAL__N_116MakeIOThreadPoolEv(ptr sret(%"class.std::shared_ptr.87") align 8 @_ZZN5arrow2io8internal15GetIOThreadPoolEvE4pool)
          to label %invoke.cont unwind label %lpad

invoke.cont:                                      ; preds = %init
  %2 = call i32 @__cxa_atexit(ptr @_ZNSt10shared_ptrIN5arrow8internal10ThreadPoolEED2Ev, ptr @_ZZN5arrow2io8internal15GetIOThreadPoolEvE4pool, ptr @__dso_handle) #2
  call void @__cxa_guard_release(ptr @_ZGVZN5arrow2io8internal15GetIOThreadPoolEvE4pool) #2
  br label %init.end

init.end:                                         ; preds = %invoke.cont, %init.check, %entry
  %call = call noundef ptr @_ZNKSt12__shared_ptrIN5arrow8internal10ThreadPoolELN9__gnu_cxx12_Lock_policyE2EE3getEv(ptr noundef nonnull align 8 dereferenceable(16) @_ZZN5arrow2io8internal15GetIOThreadPoolEvE4pool) #2
  ret ptr %call

lpad:                                             ; preds = %init
  %3 = landingpad { ptr, i32 }
          cleanup
  %4 = extractvalue { ptr, i32 } %3, 0
  store ptr %4, ptr %exn.slot, align 8
  %5 = extractvalue { ptr, i32 } %3, 1
  store i32 %5, ptr %ehselector.slot, align 4
  call void @__cxa_guard_abort(ptr @_ZGVZN5arrow2io8internal15GetIOThreadPoolEvE4pool) #2
  br label %eh.resume

eh.resume:                                        ; preds = %lpad
  %exn = load ptr, ptr %exn.slot, align 8
  %sel = load i32, ptr %ehselector.slot, align 4
  %lpad.val = insertvalue { ptr, i32 } poison, ptr %exn, 0
  %lpad.val1 = insertvalue { ptr, i32 } %lpad.val, i32 %sel, 1
  resume { ptr, i32 } %lpad.val1
}

; Function Attrs: mustprogress uwtable
define void @_ZN5arrow2io23SetIOThreadPoolCapacityEi(ptr noalias sret(%"class.arrow::Status") align 8 %agg.result, i32 noundef %threads) #0 {
entry:
  %result.ptr = alloca ptr, align 8
  %threads.addr = alloca i32, align 4
  store ptr %agg.result, ptr %result.ptr, align 8
  store i32 %threads, ptr %threads.addr, align 4
  %call = call noundef ptr @_ZN5arrow2io8internal15GetIOThreadPoolEv()
  %0 = load i32, ptr %threads.addr, align 4
  call void @_ZN5arrow8internal10ThreadPool11SetCapacityEi(ptr sret(%"class.arrow::Status") align 8 %agg.result, ptr noundef nonnull align 8 dereferenceable(33) %call, i32 noundef %0)
  ret void
}