; Function Attrs: mustprogress uwtable
define void @_ZN5arrow2io23SetIOThreadPoolCapacityEi(ptr noalias sret(%"class.arrow::Status") align 8 %agg.result, i32 noundef %threads) local_unnamed_addr #0 personality ptr @__gxx_personality_v0 {
entry:
  %0 = load atomic i8, ptr @_ZGVZN5arrow2io8internal15GetIOThreadPoolEvE4pool acquire, align 8
  %guard.uninitialized.i = icmp eq i8 %0, 0
  br i1 %guard.uninitialized.i, label %init.check.i, label %_ZN5arrow2io8internal15GetIOThreadPoolEv.exit, !prof !4

init.check.i:                                     ; preds = %entry
  %1 = tail call i32 @__cxa_guard_acquire(ptr nonnull @_ZGVZN5arrow2io8internal15GetIOThreadPoolEvE4pool) #28
  %tobool.not.i = icmp eq i32 %1, 0
  br i1 %tobool.not.i, label %_ZN5arrow2io8internal15GetIOThreadPoolEv.exit, label %init.i

init.i:                                           ; preds = %init.check.i
  invoke fastcc void @_ZN5arrow2io8internal12_GLOBAL__N_116MakeIOThreadPoolEv()
          to label %invoke.cont.i unwind label %lpad.i

invoke.cont.i:                                    ; preds = %init.i
  %2 = tail call i32 @__cxa_atexit(ptr nonnull @_ZNSt10shared_ptrIN5arrow8internal10ThreadPoolEED2Ev, ptr nonnull @_ZZN5arrow2io8internal15GetIOThreadPoolEvE4pool, ptr nonnull @__dso_handle) #28
  tail call void @__cxa_guard_release(ptr nonnull @_ZGVZN5arrow2io8internal15GetIOThreadPoolEvE4pool) #28
  br label %_ZN5arrow2io8internal15GetIOThreadPoolEv.exit

lpad.i:                                           ; preds = %init.i
  %3 = landingpad { ptr, i32 }
          cleanup
  tail call void @__cxa_guard_abort(ptr nonnull @_ZGVZN5arrow2io8internal15GetIOThreadPoolEvE4pool) #28
  resume { ptr, i32 } %3

_ZN5arrow2io8internal15GetIOThreadPoolEv.exit:    ; preds = %entry, %init.check.i, %invoke.cont.i
  %4 = load ptr, ptr @_ZZN5arrow2io8internal15GetIOThreadPoolEvE4pool, align 8
  tail call void @_ZN5arrow8internal10ThreadPool11SetCapacityEi(ptr sret(%"class.arrow::Status") align 8 %agg.result, ptr noundef nonnull align 8 dereferenceable(33) %4, i32 noundef %threads)
  ret void
}